Certificate:
    Data:
        Version: 3 (0x2)
        Serial Number: 1 (0x1)
        Signature Algorithm: sha256WithRSAEncryption
        Issuer: C=es, ST=Some-State, O=umu, OU=ppc, CN=ca
        Validity
            Not Before: Dec  4 19:18:25 2020 GMT
            Not After : Dec  4 19:18:25 2021 GMT
        Subject: C=es, ST=Unknown, O=umu, OU=ppc, CN=localhost
        Subject Public Key Info:
            Public Key Algorithm: rsaEncryption
                RSA Public-Key: (2048 bit)
                Modulus:
                    00:dd:91:46:73:63:c6:66:7a:03:8c:68:2a:6e:74:
                    2c:30:03:6b:a2:6e:f1:38:3e:72:fe:7f:48:96:88:
                    31:dd:88:57:bd:a1:88:e0:5d:da:82:27:c4:7a:e8:
                    e0:c2:e5:5d:15:a2:1d:62:de:75:fd:ba:d8:ed:ce:
                    58:a4:e1:b2:b1:b4:e7:8e:29:08:14:50:ac:2c:74:
                    93:d0:20:24:59:07:84:16:14:34:be:e2:68:8f:72:
                    91:81:ae:58:d4:28:d4:01:54:78:08:4c:9c:a1:99:
                    0f:a5:c6:80:65:f9:09:d2:ee:c9:8c:7d:01:46:da:
                    5b:3f:29:a5:8c:65:70:cc:b4:e1:ce:1a:2c:9c:97:
                    5a:cb:3c:0a:74:e8:8f:32:5f:58:43:23:fa:4e:c6:
                    1f:04:6b:64:f6:de:f4:c3:a5:81:1b:2d:e7:28:4f:
                    c8:5c:d8:00:78:de:ff:15:7f:cd:19:77:ca:91:26:
                    8c:75:81:00:e3:98:d6:9b:f7:c5:c2:81:e4:a4:60:
                    a4:6a:f7:68:9d:8e:31:6c:7f:88:b2:05:7d:b7:ba:
                    e7:dd:3f:59:b5:f6:a6:54:f0:53:ba:4c:50:c5:b8:
                    d2:68:87:ef:bb:17:2c:12:c2:94:ee:90:d0:c4:11:
                    37:fa:d1:5c:8a:f4:95:77:05:0b:31:80:b6:6b:a2:
                    24:9f
                Exponent: 65537 (0x10001)
        X509v3 extensions:
            X509v3 Basic Constraints: 
                CA:FALSE
            Netscape Comment: 
                OpenSSL Generated Certificate
            X509v3 Subject Key Identifier: 
                64:63:E2:A2:F2:A3:90:99:7E:F8:9F:F6:2A:52:08:82:F4:85:8A:CC
            X509v3 Authority Key Identifier: 
                keyid:34:70:02:7C:C1:53:52:05:E4:6D:C7:7E:D7:CB:E0:EE:4C:66:7D:C3

    Signature Algorithm: sha256WithRSAEncryption
         2c:60:15:b9:1b:ff:7d:84:17:cd:af:dc:f8:c4:c7:3c:fc:f5:
         e6:0b:a4:f3:ee:86:26:af:58:0c:65:04:55:e8:a4:86:b6:38:
         29:04:1f:d5:4d:6b:e6:3e:27:3c:e8:77:cf:7d:36:18:cd:7e:
         71:a9:7b:5b:f2:aa:f6:cd:85:ce:55:3b:7e:d7:5a:73:f5:fe:
         07:f4:75:5b:1f:1c:40:9c:f8:e1:ab:2f:4b:8e:5f:34:81:f9:
         68:a8:c3:16:a7:36:94:88:0a:31:1b:be:f6:01:69:e7:c7:d5:
         b2:95:cb:32:7f:60:d6:45:91:ae:93:e1:b8:27:5d:ed:9a:a6:
         4b:60:48:8d:f5:84:56:fa:7f:1f:a7:2c:96:ac:b7:33:d8:57:
         b5:ff:7c:26:ba:31:dd:6a:f6:e6:2e:b2:3d:b4:36:2f:f1:79:
         46:bd:5c:66:1d:64:ba:d1:1b:2b:a3:25:0f:26:d9:10:dd:0a:
         b0:87:e6:27:a7:5a:b7:a9:1a:3d:07:7c:ea:1a:d7:b1:bf:dc:
         6c:37:17:2a:d5:76:ab:e0:42:3c:98:ba:d4:01:37:e3:1d:c6:
         64:a0:9a:a4:f4:09:07:6c:d3:5d:a7:f3:01:52:cc:54:43:43:
         e6:55:91:61:61:84:2d:55:2a:7f:7a:06:b9:a2:92:ce:4c:ad:
         c3:0c:8e:2d
-----BEGIN CERTIFICATE-----
MIIDkDCCAnigAwIBAgIBATANBgkqhkiG9w0BAQsFADBLMQswCQYDVQQGEwJlczET
MBEGA1UECAwKU29tZS1TdGF0ZTEMMAoGA1UECgwDdW11MQwwCgYDVQQLDANwcGMx
CzAJBgNVBAMMAmNhMB4XDTIwMTIwNDE5MTgyNVoXDTIxMTIwNDE5MTgyNVowTzEL
MAkGA1UEBhMCZXMxEDAOBgNVBAgTB1Vua25vd24xDDAKBgNVBAoTA3VtdTEMMAoG
A1UECxMDcHBjMRIwEAYDVQQDEwlsb2NhbGhvc3QwggEiMA0GCSqGSIb3DQEBAQUA
A4IBDwAwggEKAoIBAQDdkUZzY8ZmegOMaCpudCwwA2uibvE4PnL+f0iWiDHdiFe9
oYjgXdqCJ8R66ODC5V0Voh1i3nX9utjtzlik4bKxtOeOKQgUUKwsdJPQICRZB4QW
FDS+4miPcpGBrljUKNQBVHgITJyhmQ+lxoBl+QnS7smMfQFG2ls/KaWMZXDMtOHO
Giycl1rLPAp06I8yX1hDI/pOxh8Ea2T23vTDpYEbLecoT8hc2AB43v8Vf80Zd8qR
Jox1gQDjmNab98XCgeSkYKRq92idjjFsf4iyBX23uufdP1m19qZU8FO6TFDFuNJo
h++7FywSwpTukNDEETf60VyK9JV3BQsxgLZroiSfAgMBAAGjezB5MAkGA1UdEwQC
MAAwLAYJYIZIAYb4QgENBB8WHU9wZW5TU0wgR2VuZXJhdGVkIENlcnRpZmljYXRl
MB0GA1UdDgQWBBRkY+Ki8qOQmX74n/YqUgiC9IWKzDAfBgNVHSMEGDAWgBQ0cAJ8
wVNSBeRtx37Xy+DuTGZ9wzANBgkqhkiG9w0BAQsFAAOCAQEALGAVuRv/fYQXza/c
+MTHPPz15guk8+6GJq9YDGUEVeikhrY4KQQf1U1r5j4nPOh3z302GM1+cal7W/Kq
9s2FzlU7ftdac/X+B/R1Wx8cQJz44asvS45fNIH5aKjDFqc2lIgKMRu+9gFp58fV
spXLMn9g1kWRrpPhuCdd7ZqmS2BIjfWEVvp/H6cslqy3M9hXtf98Jrox3Wr25i6y
PbQ2L/F5Rr1cZh1kutEbK6MlDybZEN0KsIfmJ6dat6kaPQd86hrXsb/cbDcXKtV2
q+BCPJi61AE34x3GZKCapPQJB2zTXafzAVLMVEND5lWRYWGELVUqf3oGuaKSzkyt
wwyOLQ==
-----END CERTIFICATE-----
