Certificate:
    Data:
        Version: 3 (0x2)
        Serial Number: 2 (0x2)
        Signature Algorithm: sha256WithRSAEncryption
        Issuer: C=es, ST=Some-State, O=umu, OU=ppc, CN=ca
        Validity
            Not Before: Dec  4 19:23:06 2020 GMT
            Not After : Dec  4 19:23:06 2021 GMT
        Subject: C=es, ST=Unknown, O=umu, OU=ppc, CN=jaime
        Subject Public Key Info:
            Public Key Algorithm: rsaEncryption
                RSA Public-Key: (2048 bit)
                Modulus:
                    00:b6:a9:5e:17:38:53:70:cc:fe:01:cd:7d:4d:a4:
                    56:2a:d0:71:ac:7b:7e:2b:1f:eb:6e:ec:e4:f6:cd:
                    4d:f3:ab:f8:23:28:dd:ca:d6:e7:e7:7c:9a:93:6f:
                    8b:8d:06:0d:01:ac:ce:ed:74:88:5b:24:37:ca:6d:
                    6c:0d:39:d1:de:cf:30:74:47:61:9e:2c:a5:ba:36:
                    b2:88:17:98:03:ce:eb:a6:26:3e:d1:27:aa:09:80:
                    94:1c:6e:0b:08:ed:b6:d9:55:06:8d:db:92:9a:fc:
                    8e:8e:71:5d:9d:51:59:25:09:d8:91:4b:16:b1:74:
                    a3:d6:c9:fb:47:f1:f3:b9:c1:84:0b:44:b7:37:cd:
                    13:f8:ac:f7:c7:ef:2a:4c:e3:3c:7f:81:62:d0:1e:
                    25:f1:09:dc:92:b8:3e:6e:15:de:46:46:ae:9d:e9:
                    1a:0d:e7:43:e9:9e:31:67:cd:9b:6c:82:5c:3a:c9:
                    5d:7c:7a:e9:10:c9:62:c0:67:a2:fe:d3:9b:3c:34:
                    e8:57:4d:17:bb:2e:12:90:9d:04:57:9a:b5:c1:f1:
                    49:46:d8:c3:ca:f0:82:53:7c:c5:02:7d:ad:74:a3:
                    79:0a:51:33:05:1a:6c:65:90:e9:f1:75:33:68:42:
                    8b:85:99:2f:d1:f8:a4:48:10:87:05:2c:bf:2b:d7:
                    cd:9f
                Exponent: 65537 (0x10001)
        X509v3 extensions:
            X509v3 Basic Constraints: 
                CA:FALSE
            Netscape Comment: 
                OpenSSL Generated Certificate
            X509v3 Subject Key Identifier: 
                02:2B:1F:9B:1E:28:E7:C2:EF:E7:C7:38:72:41:D8:22:29:7F:EE:BF
            X509v3 Authority Key Identifier: 
                keyid:34:70:02:7C:C1:53:52:05:E4:6D:C7:7E:D7:CB:E0:EE:4C:66:7D:C3

    Signature Algorithm: sha256WithRSAEncryption
         be:0d:75:8b:d7:21:e5:93:28:2c:05:13:b0:03:9d:42:69:b0:
         f5:e1:2d:a0:7b:75:49:ac:78:b3:1b:43:a3:c4:d7:24:ff:c7:
         a1:17:f6:91:15:76:75:0e:ff:09:f4:41:7b:7d:90:9b:e3:3c:
         04:a6:65:b1:36:5a:f8:76:de:00:60:d4:48:6b:10:82:7b:35:
         b1:a1:27:53:c0:9f:7d:e3:04:09:52:2c:11:d1:5f:7b:27:d2:
         19:a9:5f:a5:19:c5:7f:e1:94:c2:2c:8b:67:1a:d7:50:53:2d:
         2e:70:55:9a:b3:4d:4b:dc:3c:3f:c1:77:8a:4c:d2:3c:03:93:
         8b:1a:6d:33:09:3a:2f:04:b1:b8:15:b5:f0:1e:bc:c9:f4:d6:
         8f:05:aa:34:31:fc:87:a2:bd:98:12:53:ea:42:8f:35:87:4e:
         31:26:bb:85:d1:ee:e3:4a:01:43:78:f6:14:6d:53:25:66:ec:
         79:8f:bb:5b:b0:e4:cc:1f:a7:d2:67:4a:03:68:81:17:9c:a1:
         21:f0:26:d5:7b:3f:c3:4a:d3:f6:f5:0a:be:d5:10:e2:1d:89:
         12:2b:c6:1a:0f:96:e3:60:3a:57:ef:8f:12:27:0c:d6:9e:00:
         ed:b3:ee:6e:94:5a:0d:05:fe:cb:85:cb:80:4e:e6:bd:63:8f:
         c9:2f:99:a5
-----BEGIN CERTIFICATE-----
MIIDjDCCAnSgAwIBAgIBAjANBgkqhkiG9w0BAQsFADBLMQswCQYDVQQGEwJlczET
MBEGA1UECAwKU29tZS1TdGF0ZTEMMAoGA1UECgwDdW11MQwwCgYDVQQLDANwcGMx
CzAJBgNVBAMMAmNhMB4XDTIwMTIwNDE5MjMwNloXDTIxMTIwNDE5MjMwNlowSzEL
MAkGA1UEBhMCZXMxEDAOBgNVBAgTB1Vua25vd24xDDAKBgNVBAoTA3VtdTEMMAoG
A1UECxMDcHBjMQ4wDAYDVQQDEwVqYWltZTCCASIwDQYJKoZIhvcNAQEBBQADggEP
ADCCAQoCggEBALapXhc4U3DM/gHNfU2kVirQcax7fisf627s5PbNTfOr+CMo3crW
5+d8mpNvi40GDQGszu10iFskN8ptbA050d7PMHRHYZ4spbo2sogXmAPO66YmPtEn
qgmAlBxuCwjtttlVBo3bkpr8jo5xXZ1RWSUJ2JFLFrF0o9bJ+0fx87nBhAtEtzfN
E/is98fvKkzjPH+BYtAeJfEJ3JK4Pm4V3kZGrp3pGg3nQ+meMWfNm2yCXDrJXXx6
6RDJYsBnov7Tmzw06FdNF7suEpCdBFeatcHxSUbYw8rwglN8xQJ9rXSjeQpRMwUa
bGWQ6fF1M2hCi4WZL9H4pEgQhwUsvyvXzZ8CAwEAAaN7MHkwCQYDVR0TBAIwADAs
BglghkgBhvhCAQ0EHxYdT3BlblNTTCBHZW5lcmF0ZWQgQ2VydGlmaWNhdGUwHQYD
VR0OBBYEFAIrH5seKOfC7+fHOHJB2CIpf+6/MB8GA1UdIwQYMBaAFDRwAnzBU1IF
5G3HftfL4O5MZn3DMA0GCSqGSIb3DQEBCwUAA4IBAQC+DXWL1yHlkygsBROwA51C
abD14S2ge3VJrHizG0OjxNck/8ehF/aRFXZ1Dv8J9EF7fZCb4zwEpmWxNlr4dt4A
YNRIaxCCezWxoSdTwJ994wQJUiwR0V97J9IZqV+lGcV/4ZTCLItnGtdQUy0ucFWa
s01L3Dw/wXeKTNI8A5OLGm0zCTovBLG4FbXwHrzJ9NaPBao0MfyHor2YElPqQo81
h04xJruF0e7jSgFDePYUbVMlZux5j7tbsOTMH6fSZ0oDaIEXnKEh8CbVez/DStP2
9Qq+1RDiHYkSK8YaD5bjYDpX748SJwzWngDts+5ulFoNBf7LhcuATua9Y4/JL5ml
-----END CERTIFICATE-----
